target datalayout = "e-m:e-p270:32:32-p271:32:32-p272:64:64-i64:64-i128:128-f80:128-n8:16:32:64-S128"
target triple = "x86_64-pc-linux-gnu"

%"class.absl::str_format_internal::FormatConversionSpecImpl" = type { i8, i8, i8, i32, i32 }
%"class.absl::str_format_internal::(anonymous namespace)::IntDigits" = type <{ ptr, i64, [44 x i8], [4 x i8] }>
%"class.std::basic_string_view" = type { i64, ptr }
%"class.absl::str_format_internal::FormatSinkImpl" = type { %"class.absl::str_format_internal::FormatRawSinkImpl", i64, ptr, [1024 x i8] }
%"class.absl::str_format_internal::FormatRawSinkImpl" = type { ptr, ptr }
%"struct.absl::str_format_internal::ArgConvertResult" = type { i8 }
%"struct.absl::str_format_internal::VoidPtr" = type { i64 }

@.str.2 = private unnamed_addr constant [6 x i8] c"(nil)\00", align 1
@_ZN4absl16numbers_internal9kHexTableE = external constant [513 x i8], align 16

; Function Attrs: mustprogress nounwind uwtable
define linkonce_odr dso_local void @_ZNSt17basic_string_viewIcSt11char_traitsIcEEC2EPKcm(ptr noundef nonnull align 8 dereferenceable(16) %0, ptr noundef %1, i64 noundef %2) unnamed_addr #3 comdat align 2 {
  %4 = alloca ptr, align 8
  %5 = alloca ptr, align 8
  %6 = alloca i64, align 8
  store ptr %0, ptr %4, align 8, !tbaa !104
  store ptr %1, ptr %5, align 8, !tbaa !35
  store i64 %2, ptr %6, align 8, !tbaa !26
  %7 = load ptr, ptr %4, align 8
  %8 = getelementptr inbounds nuw %"class.std::basic_string_view", ptr %7, i32 0, i32 0
  %9 = load i64, ptr %6, align 8, !tbaa !26
  store i64 %9, ptr %8, align 8, !tbaa !106
  %10 = getelementptr inbounds nuw %"class.std::basic_string_view", ptr %7, i32 0, i32 1
  %11 = load ptr, ptr %5, align 8, !tbaa !35
  store ptr %11, ptr %10, align 8, !tbaa !108
  ret void
}

; Function Attrs: mustprogress nounwind uwtable
define linkonce_odr dso_local noundef ptr @_ZNKSt17basic_string_viewIcSt11char_traitsIcEE4dataEv(ptr noundef nonnull align 8 dereferenceable(16) %0) #3 comdat align 2 {
  %2 = alloca ptr, align 8
  store ptr %0, ptr %2, align 8, !tbaa !104
  %3 = load ptr, ptr %2, align 8
  %4 = getelementptr inbounds nuw %"class.std::basic_string_view", ptr %3, i32 0, i32 1
  %5 = load ptr, ptr %4, align 8, !tbaa !108
  ret ptr %5
}

; Function Attrs: mustprogress uwtable
define linkonce_odr dso_local void @_ZN4absl19str_format_internal17FormatRawSinkImpl5WriteESt17basic_string_viewIcSt11char_traitsIcEE(ptr noundef nonnull align 8 dereferenceable(16) %0, i64 %1, ptr %2) #0 comdat align 2 {
  %4 = alloca %"class.std::basic_string_view", align 8
  %5 = alloca ptr, align 8
  %6 = alloca %"class.std::basic_string_view", align 8
  %7 = getelementptr inbounds nuw { i64, ptr }, ptr %4, i32 0, i32 0
  store i64 %1, ptr %7, align 8
  %8 = getelementptr inbounds nuw { i64, ptr }, ptr %4, i32 0, i32 1
  store ptr %2, ptr %8, align 8
  store ptr %0, ptr %5, align 8, !tbaa !123
  %9 = load ptr, ptr %5, align 8
  %10 = getelementptr inbounds nuw %"class.absl::str_format_internal::FormatRawSinkImpl", ptr %9, i32 0, i32 1
  %11 = load ptr, ptr %10, align 8, !tbaa !125
  %12 = getelementptr inbounds nuw %"class.absl::str_format_internal::FormatRawSinkImpl", ptr %9, i32 0, i32 0
  %13 = load ptr, ptr %12, align 8, !tbaa !126
  call void @llvm.memcpy.p0.p0.i64(ptr align 8 %6, ptr align 8 %4, i64 16, i1 false), !tbaa.struct !48
  %14 = getelementptr inbounds nuw { i64, ptr }, ptr %6, i32 0, i32 0
  %15 = load i64, ptr %14, align 8
  %16 = getelementptr inbounds nuw { i64, ptr }, ptr %6, i32 0, i32 1
  %17 = load ptr, ptr %16, align 8
  call void %11(ptr noundef %13, i64 %15, ptr %17)
  ret void
}

; Function Attrs: mustprogress uwtable
define linkonce_odr dso_local void @_ZN4absl19str_format_internal14FormatSinkImpl5FlushEv(ptr noundef nonnull align 8 dereferenceable(1056) %0) #0 comdat align 2 {
  %2 = alloca ptr, align 8
  %3 = alloca %"class.std::basic_string_view", align 8
  store ptr %0, ptr %2, align 8, !tbaa !7
  %4 = load ptr, ptr %2, align 8
  %5 = getelementptr inbounds nuw %"class.absl::str_format_internal::FormatSinkImpl", ptr %4, i32 0, i32 0
  %6 = getelementptr inbounds nuw %"class.absl::str_format_internal::FormatSinkImpl", ptr %4, i32 0, i32 3
  %7 = getelementptr inbounds [1024 x i8], ptr %6, i64 0, i64 0
  %8 = getelementptr inbounds nuw %"class.absl::str_format_internal::FormatSinkImpl", ptr %4, i32 0, i32 2
  %9 = load ptr, ptr %8, align 8, !tbaa !49
  %10 = getelementptr inbounds nuw %"class.absl::str_format_internal::FormatSinkImpl", ptr %4, i32 0, i32 3
  %11 = getelementptr inbounds [1024 x i8], ptr %10, i64 0, i64 0
  %12 = ptrtoint ptr %9 to i64
  %13 = ptrtoint ptr %11 to i64
  %14 = sub i64 %12, %13
  call void @_ZNSt17basic_string_viewIcSt11char_traitsIcEEC2EPKcm(ptr noundef nonnull align 8 dereferenceable(16) %3, ptr noundef %7, i64 noundef %14) #16
  %15 = getelementptr inbounds nuw { i64, ptr }, ptr %3, i32 0, i32 0
  %16 = load i64, ptr %15, align 8
  %17 = getelementptr inbounds nuw { i64, ptr }, ptr %3, i32 0, i32 1
  %18 = load ptr, ptr %17, align 8
  call void @_ZN4absl19str_format_internal17FormatRawSinkImpl5WriteESt17basic_string_viewIcSt11char_traitsIcEE(ptr noundef nonnull align 8 dereferenceable(16) %5, i64 %16, ptr %18)
  %19 = getelementptr inbounds nuw %"class.absl::str_format_internal::FormatSinkImpl", ptr %4, i32 0, i32 3
  %20 = getelementptr inbounds [1024 x i8], ptr %19, i64 0, i64 0
  %21 = getelementptr inbounds nuw %"class.absl::str_format_internal::FormatSinkImpl", ptr %4, i32 0, i32 2
  store ptr %20, ptr %21, align 8, !tbaa !49
  ret void
}

; Function Attrs: mustprogress nounwind uwtable
define linkonce_odr dso_local noundef i64 @_ZNK4absl19str_format_internal14FormatSinkImpl5AvailEv(ptr noundef nonnull align 8 dereferenceable(1056) %0) #3 comdat align 2 {
  %2 = alloca ptr, align 8
  store ptr %0, ptr %2, align 8, !tbaa !7
  %3 = load ptr, ptr %2, align 8
  %4 = getelementptr inbounds nuw %"class.absl::str_format_internal::FormatSinkImpl", ptr %3, i32 0, i32 3
  %5 = getelementptr inbounds [1024 x i8], ptr %4, i64 0, i64 0
  %6 = getelementptr inbounds nuw i8, ptr %5, i64 1024
  %7 = getelementptr inbounds nuw %"class.absl::str_format_internal::FormatSinkImpl", ptr %3, i32 0, i32 2
  %8 = load ptr, ptr %7, align 8, !tbaa !49
  %9 = ptrtoint ptr %6 to i64
  %10 = ptrtoint ptr %8 to i64
  %11 = sub i64 %9, %10
  ret i64 %11
}

; Function Attrs: mustprogress nounwind uwtable
define linkonce_odr dso_local noundef i64 @_ZNKSt17basic_string_viewIcSt11char_traitsIcEE4sizeEv(ptr noundef nonnull align 8 dereferenceable(16) %0) #3 comdat align 2 {
  %2 = alloca ptr, align 8
  store ptr %0, ptr %2, align 8, !tbaa !104
  %3 = load ptr, ptr %2, align 8
  %4 = getelementptr inbounds nuw %"class.std::basic_string_view", ptr %3, i32 0, i32 0
  %5 = load i64, ptr %4, align 8, !tbaa !106
  ret i64 %5
}

; Function Attrs: noinline noreturn nounwind uwtable
define linkonce_odr hidden void @__clang_call_terminate(ptr noundef %0) #11 comdat {
  %2 = call ptr @__cxa_begin_catch(ptr %0) #16
  call void @_ZSt9terminatev() #18
  unreachable
}

; Function Attrs: mustprogress nounwind uwtable
define linkonce_odr dso_local noundef i64 @_ZNSt11char_traitsIcE6lengthEPKc(ptr noundef %0) #3 comdat align 2 {
  %2 = alloca ptr, align 8
  store ptr %0, ptr %2, align 8, !tbaa !35
  %3 = load ptr, ptr %2, align 8, !tbaa !35
  %4 = call i64 @strlen(ptr noundef %3) #16
  ret i64 %4
}

; Function Attrs: mustprogress nounwind uwtable
define internal void @_ZN4absl19str_format_internal12_GLOBAL__N_19IntDigits15PrintAsHexLowerImEEvT_(ptr noundef nonnull align 8 dereferenceable(60) %0, i64 noundef %1) #3 align 2 {
  %3 = alloca ptr, align 8
  %4 = alloca i64, align 8
  %5 = alloca ptr, align 8
  %6 = alloca ptr, align 8
  store ptr %0, ptr %3, align 8, !tbaa !33
  store i64 %1, ptr %4, align 8, !tbaa !26
  %7 = load ptr, ptr %3, align 8
  call void @llvm.lifetime.start.p0(i64 8, ptr %5) #16
  %8 = getelementptr inbounds nuw %"class.absl::str_format_internal::(anonymous namespace)::IntDigits", ptr %7, i32 0, i32 2
  %9 = getelementptr inbounds [44 x i8], ptr %8, i64 0, i64 0
  %10 = getelementptr inbounds nuw i8, ptr %9, i64 44
  store ptr %10, ptr %5, align 8, !tbaa !35
  br label %11

11:                                               ; preds = %21, %2
  %12 = load ptr, ptr %5, align 8, !tbaa !35
  %13 = getelementptr inbounds i8, ptr %12, i64 -2
  store ptr %13, ptr %5, align 8, !tbaa !35
  call void @llvm.lifetime.start.p0(i64 8, ptr %6) #16
  store ptr @_ZN4absl16numbers_internal9kHexTableE, ptr %6, align 8, !tbaa !35
  %14 = load ptr, ptr %5, align 8, !tbaa !35
  %15 = load i64, ptr %4, align 8, !tbaa !26
  %16 = and i64 %15, 255
  %17 = mul i64 2, %16
  %18 = getelementptr inbounds nuw i8, ptr @_ZN4absl16numbers_internal9kHexTableE, i64 %17
  call void @llvm.memcpy.p0.p0.i64(ptr align 1 %14, ptr align 1 %18, i64 2, i1 false)
  %19 = load i64, ptr %4, align 8, !tbaa !26
  %20 = lshr i64 %19, 8
  store i64 %20, ptr %4, align 8, !tbaa !26
  call void @llvm.lifetime.end.p0(i64 8, ptr %6) #16
  br label %21

21:                                               ; preds = %11
  %22 = load i64, ptr %4, align 8, !tbaa !26
  %23 = icmp ne i64 %22, 0
  br i1 %23, label %11, label %24, !llvm.loop !60

24:                                               ; preds = %21
  %25 = load ptr, ptr %5, align 8, !tbaa !35
  %26 = getelementptr inbounds i8, ptr %25, i64 0
  %27 = load i8, ptr %26, align 1, !tbaa !4
  %28 = sext i8 %27 to i32
  %29 = icmp eq i32 %28, 48
  br i1 %29, label %30, label %33

30:                                               ; preds = %24
  %31 = load ptr, ptr %5, align 8, !tbaa !35
  %32 = getelementptr inbounds nuw i8, ptr %31, i32 1
  store ptr %32, ptr %5, align 8, !tbaa !35
  br label %33

33:                                               ; preds = %30, %24
  %34 = load ptr, ptr %5, align 8, !tbaa !35
  %35 = getelementptr inbounds nuw %"class.absl::str_format_internal::(anonymous namespace)::IntDigits", ptr %7, i32 0, i32 0
  store ptr %34, ptr %35, align 8, !tbaa !39
  %36 = getelementptr inbounds nuw %"class.absl::str_format_internal::(anonymous namespace)::IntDigits", ptr %7, i32 0, i32 2
  %37 = getelementptr inbounds [44 x i8], ptr %36, i64 0, i64 0
  %38 = getelementptr inbounds nuw i8, ptr %37, i64 44
  %39 = load ptr, ptr %5, align 8, !tbaa !35
  %40 = ptrtoint ptr %38 to i64
  %41 = ptrtoint ptr %39 to i64
  %42 = sub i64 %40, %41
  %43 = getelementptr inbounds nuw %"class.absl::str_format_internal::(anonymous namespace)::IntDigits", ptr %7, i32 0, i32 1
  store i64 %42, ptr %43, align 8, !tbaa !41
  call void @llvm.lifetime.end.p0(i64 8, ptr %5) #16
  ret void
}

; Function Attrs: mustprogress uwtable
define linkonce_odr dso_local void @_ZN4absl19str_format_internal14FormatSinkImpl6AppendESt17basic_string_viewIcSt11char_traitsIcEE(ptr noundef nonnull align 8 dereferenceable(1056) %0, i64 %1, ptr %2) #0 comdat align 2 {
  %4 = alloca %"class.std::basic_string_view", align 8
  %5 = alloca ptr, align 8
  %6 = alloca i64, align 8
  %7 = alloca i32, align 4
  %8 = alloca %"class.std::basic_string_view", align 8
  %9 = getelementptr inbounds nuw { i64, ptr }, ptr %4, i32 0, i32 0
  store i64 %1, ptr %9, align 8
  %10 = getelementptr inbounds nuw { i64, ptr }, ptr %4, i32 0, i32 1
  store ptr %2, ptr %10, align 8
  store ptr %0, ptr %5, align 8, !tbaa !7
  %11 = load ptr, ptr %5, align 8
  call void @llvm.lifetime.start.p0(i64 8, ptr %6) #16
  %12 = call noundef i64 @_ZNKSt17basic_string_viewIcSt11char_traitsIcEE4sizeEv(ptr noundef nonnull align 8 dereferenceable(16) %4) #16
  store i64 %12, ptr %6, align 8, !tbaa !26
  %13 = load i64, ptr %6, align 8, !tbaa !26
  %14 = icmp eq i64 %13, 0
  br i1 %14, label %15, label %16

15:                                               ; preds = %3
  store i32 1, ptr %7, align 4
  br label %39

16:                                               ; preds = %3
  %17 = load i64, ptr %6, align 8, !tbaa !26
  %18 = getelementptr inbounds nuw %"class.absl::str_format_internal::FormatSinkImpl", ptr %11, i32 0, i32 1
  %19 = load i64, ptr %18, align 8, !tbaa !45
  %20 = add i64 %19, %17
  store i64 %20, ptr %18, align 8, !tbaa !45
  %21 = load i64, ptr %6, align 8, !tbaa !26
  %22 = call noundef i64 @_ZNK4absl19str_format_internal14FormatSinkImpl5AvailEv(ptr noundef nonnull align 8 dereferenceable(1056) %11)
  %23 = icmp uge i64 %21, %22
  br i1 %23, label %24, label %30

24:                                               ; preds = %16
  call void @_ZN4absl19str_format_internal14FormatSinkImpl5FlushEv(ptr noundef nonnull align 8 dereferenceable(1056) %11)
  %25 = getelementptr inbounds nuw %"class.absl::str_format_internal::FormatSinkImpl", ptr %11, i32 0, i32 0
  call void @llvm.memcpy.p0.p0.i64(ptr align 8 %8, ptr align 8 %4, i64 16, i1 false), !tbaa.struct !48
  %26 = getelementptr inbounds nuw { i64, ptr }, ptr %8, i32 0, i32 0
  %27 = load i64, ptr %26, align 8
  %28 = getelementptr inbounds nuw { i64, ptr }, ptr %8, i32 0, i32 1
  %29 = load ptr, ptr %28, align 8
  call void @_ZN4absl19str_format_internal17FormatRawSinkImpl5WriteESt17basic_string_viewIcSt11char_traitsIcEE(ptr noundef nonnull align 8 dereferenceable(16) %25, i64 %27, ptr %29)
  store i32 1, ptr %7, align 4
  br label %39

30:                                               ; preds = %16
  %31 = getelementptr inbounds nuw %"class.absl::str_format_internal::FormatSinkImpl", ptr %11, i32 0, i32 2
  %32 = load ptr, ptr %31, align 8, !tbaa !49
  %33 = call noundef ptr @_ZNKSt17basic_string_viewIcSt11char_traitsIcEE4dataEv(ptr noundef nonnull align 8 dereferenceable(16) %4) #16
  %34 = load i64, ptr %6, align 8, !tbaa !26
  call void @llvm.memcpy.p0.p0.i64(ptr align 1 %32, ptr align 1 %33, i64 %34, i1 false)
  %35 = load i64, ptr %6, align 8, !tbaa !26
  %36 = getelementptr inbounds nuw %"class.absl::str_format_internal::FormatSinkImpl", ptr %11, i32 0, i32 2
  %37 = load ptr, ptr %36, align 8, !tbaa !49
  %38 = getelementptr inbounds nuw i8, ptr %37, i64 %35
  store ptr %38, ptr %36, align 8, !tbaa !49
  store i32 0, ptr %7, align 4
  br label %39

39:                                               ; preds = %30, %24, %15
  call void @llvm.lifetime.end.p0(i64 8, ptr %6) #16
  %40 = load i32, ptr %7, align 4
  switch i32 %40, label %42 [
    i32 0, label %41
    i32 1, label %41
  ]

41:                                               ; preds = %39, %39
  ret void

42:                                               ; preds = %39
  unreachable
}

; Function Attrs: mustprogress nounwind uwtable
define linkonce_odr dso_local void @_ZNSt17basic_string_viewIcSt11char_traitsIcEEC2EPKc(ptr noundef nonnull align 8 dereferenceable(16) %0, ptr noundef nonnull %1) unnamed_addr #3 comdat align 2 personality ptr @__gxx_personality_v0 {
  %3 = alloca ptr, align 8
  %4 = alloca ptr, align 8
  store ptr %0, ptr %3, align 8, !tbaa !104
  store ptr %1, ptr %4, align 8, !tbaa !35
  %5 = load ptr, ptr %3, align 8
  %6 = getelementptr inbounds nuw %"class.std::basic_string_view", ptr %5, i32 0, i32 0
  %7 = load ptr, ptr %4, align 8, !tbaa !35
  %8 = invoke noundef i64 @_ZNSt11char_traitsIcE6lengthEPKc(ptr noundef %7)
          to label %9 unwind label %12

9:                                                ; preds = %2
  store i64 %8, ptr %6, align 8, !tbaa !106
  %10 = getelementptr inbounds nuw %"class.std::basic_string_view", ptr %5, i32 0, i32 1
  %11 = load ptr, ptr %4, align 8, !tbaa !35
  store ptr %11, ptr %10, align 8, !tbaa !108
  ret void

12:                                               ; preds = %2
  %13 = landingpad { ptr, i32 }
          catch ptr null
  %14 = extractvalue { ptr, i32 } %13, 0
  call void @__clang_call_terminate(ptr %14) #18
  unreachable
}

; Function Attrs: mustprogress uwtable
define dso_local i8 @_ZN4absl19str_format_internal17FormatConvertImplENS0_7VoidPtrENS0_24FormatConversionSpecImplEPNS0_14FormatSinkImplE(i64 %0, i64 %1, i32 %2, ptr noundef %3) #0 {
  %5 = alloca %"struct.absl::str_format_internal::ArgConvertResult", align 1
  %6 = alloca %"struct.absl::str_format_internal::VoidPtr", align 8
  %7 = alloca %"class.absl::str_format_internal::FormatConversionSpecImpl", align 4
  %8 = alloca { i64, i32 }, align 4
  %9 = alloca ptr, align 8
  %10 = alloca %"class.std::basic_string_view", align 8
  %11 = alloca %"class.absl::str_format_internal::(anonymous namespace)::IntDigits", align 8
  %12 = alloca %"class.absl::str_format_internal::FormatConversionSpecImpl", align 4
  %13 = alloca { i64, i32 }, align 4
  %14 = getelementptr inbounds nuw %"struct.absl::str_format_internal::VoidPtr", ptr %6, i32 0, i32 0
  store i64 %0, ptr %14, align 8
  %15 = getelementptr inbounds nuw { i64, i32 }, ptr %8, i32 0, i32 0
  store i64 %1, ptr %15, align 4
  %16 = getelementptr inbounds nuw { i64, i32 }, ptr %8, i32 0, i32 1
  store i32 %2, ptr %16, align 4
  call void @llvm.memcpy.p0.p0.i64(ptr align 4 %7, ptr align 4 %8, i64 12, i1 false)
  store ptr %3, ptr %9, align 8, !tbaa !7
  %17 = getelementptr inbounds nuw %"struct.absl::str_format_internal::VoidPtr", ptr %6, i32 0, i32 0
  %18 = load i64, ptr %17, align 8, !tbaa !75
  %19 = icmp ne i64 %18, 0
  br i1 %19, label %27, label %20

20:                                               ; preds = %4
  %21 = load ptr, ptr %9, align 8, !tbaa !7
  call void @_ZNSt17basic_string_viewIcSt11char_traitsIcEEC2EPKc(ptr noundef nonnull align 8 dereferenceable(16) %10, ptr noundef @.str.2) #16
  %22 = getelementptr inbounds nuw { i64, ptr }, ptr %10, i32 0, i32 0
  %23 = load i64, ptr %22, align 8
  %24 = getelementptr inbounds nuw { i64, ptr }, ptr %10, i32 0, i32 1
  %25 = load ptr, ptr %24, align 8
  call void @_ZN4absl19str_format_internal14FormatSinkImpl6AppendESt17basic_string_viewIcSt11char_traitsIcEE(ptr noundef nonnull align 8 dereferenceable(1056) %21, i64 %23, ptr %25)
  %26 = getelementptr inbounds nuw %"struct.absl::str_format_internal::ArgConvertResult", ptr %5, i32 0, i32 0
  store i8 1, ptr %26, align 1, !tbaa !69
  br label %38

27:                                               ; preds = %4
  call void @llvm.lifetime.start.p0(i64 64, ptr %11) #16
  %28 = getelementptr inbounds nuw %"struct.absl::str_format_internal::VoidPtr", ptr %6, i32 0, i32 0
  %29 = load i64, ptr %28, align 8, !tbaa !75
  call void @_ZN4absl19str_format_internal12_GLOBAL__N_19IntDigits15PrintAsHexLowerImEEvT_(ptr noundef nonnull align 8 dereferenceable(60) %11, i64 noundef %29)
  %30 = getelementptr inbounds nuw %"struct.absl::str_format_internal::ArgConvertResult", ptr %5, i32 0, i32 0
  call void @llvm.memcpy.p0.p0.i64(ptr align 4 %12, ptr align 4 %7, i64 12, i1 false), !tbaa.struct !10
  %31 = load ptr, ptr %9, align 8, !tbaa !7
  call void @llvm.memcpy.p0.p0.i64(ptr align 4 %13, ptr align 4 %12, i64 12, i1 false)
  %32 = getelementptr inbounds nuw { i64, i32 }, ptr %13, i32 0, i32 0
  %33 = load i64, ptr %32, align 4
  %34 = getelementptr inbounds nuw { i64, i32 }, ptr %13, i32 0, i32 1
  %35 = load i32, ptr %34, align 4
  %36 = call noundef zeroext i1 @_ZN4absl19str_format_internal12_GLOBAL__N_123ConvertIntImplInnerSlowERKNS1_9IntDigitsENS0_24FormatConversionSpecImplEPNS0_14FormatSinkImplE(ptr noundef nonnull align 8 dereferenceable(60) %11, i64 %33, i32 %35, ptr noundef %31)
  %37 = zext i1 %36 to i8
  store i8 %37, ptr %30, align 1, !tbaa !69
  call void @llvm.lifetime.end.p0(i64 64, ptr %11) #16
  br label %38

38:                                               ; preds = %27, %20
  %39 = getelementptr inbounds nuw %"struct.absl::str_format_internal::ArgConvertResult", ptr %5, i32 0, i32 0
  %40 = load i8, ptr %39, align 1
  ret i8 %40
}