; Function Attrs: mustprogress uwtable
define dso_local noundef i8 @_ZN4absl19str_format_internal17FormatConvertImplENS0_7VoidPtrENS0_24FormatConversionSpecImplEPNS0_14FormatSinkImplE(i64 %0, i64 %1, i32 %2, ptr noundef %3) local_unnamed_addr #0 personality ptr @__gxx_personality_v0 {
  %5 = alloca %"class.absl::str_format_internal::(anonymous namespace)::IntDigits", align 8
  %.not = icmp eq i64 %0, 0
  br i1 %.not, label %6, label %28

6:                                                ; preds = %4
  %7 = getelementptr inbounds nuw i8, ptr %3, i64 16
  %8 = load i64, ptr %7, align 8, !tbaa !16
  %9 = add i64 %8, 5
  store i64 %9, ptr %7, align 8, !tbaa !16
  %10 = getelementptr inbounds nuw i8, ptr %3, i64 1056
  %11 = getelementptr inbounds nuw i8, ptr %3, i64 24
  %12 = load ptr, ptr %11, align 8, !tbaa !19
  %13 = ptrtoint ptr %10 to i64
  %14 = ptrtoint ptr %12 to i64
  %15 = sub i64 %13, %14
  %.not.i = icmp ugt i64 %15, 5
  br i1 %.not.i, label %25, label %16

16:                                               ; preds = %6
  %17 = getelementptr inbounds nuw i8, ptr %3, i64 32
  %18 = ptrtoint ptr %17 to i64
  %19 = sub i64 %14, %18
  %20 = getelementptr inbounds nuw i8, ptr %3, i64 8
  %21 = load ptr, ptr %20, align 8, !tbaa !20
  %22 = load ptr, ptr %3, align 8, !tbaa !21
  tail call void %21(ptr noundef %22, i64 %19, ptr nonnull %17)
  store ptr %17, ptr %11, align 8, !tbaa !19
  %23 = load ptr, ptr %20, align 8, !tbaa !20
  %24 = load ptr, ptr %3, align 8, !tbaa !21
  tail call void %23(ptr noundef %24, i64 5, ptr nonnull @.str.2)
  br label %_ZN4absl19str_format_internal14FormatSinkImpl6AppendESt17basic_string_viewIcSt11char_traitsIcEE.exit

25:                                               ; preds = %6
  tail call void @llvm.memcpy.p0.p0.i64(ptr noundef nonnull align 1 dereferenceable(5) %12, ptr noundef nonnull align 1 dereferenceable(5) @.str.2, i64 5, i1 false)
  %26 = load ptr, ptr %11, align 8, !tbaa !19
  %27 = getelementptr inbounds nuw i8, ptr %26, i64 5
  store ptr %27, ptr %11, align 8, !tbaa !19
  br label %_ZN4absl19str_format_internal14FormatSinkImpl6AppendESt17basic_string_viewIcSt11char_traitsIcEE.exit

28:                                               ; preds = %4
  call void @llvm.lifetime.start.p0(i64 64, ptr nonnull %5) #12
  %29 = getelementptr inbounds nuw i8, ptr %5, i64 60
  br label %30

30:                                               ; preds = %30, %28
  %.09.i = phi ptr [ %29, %28 ], [ %31, %30 ]
  %.0.i = phi i64 [ %0, %28 ], [ %36, %30 ]
  %31 = getelementptr inbounds i8, ptr %.09.i, i64 -2
  %32 = shl i64 %.0.i, 1
  %33 = and i64 %32, 510
  %34 = getelementptr inbounds nuw i8, ptr @_ZN4absl16numbers_internal9kHexTableE, i64 %33
  %35 = load i16, ptr %34, align 2
  store i16 %35, ptr %31, align 1
  %36 = lshr i64 %.0.i, 8
  %.not.i12 = icmp ult i64 %.0.i, 256
  br i1 %.not.i12, label %_ZN4absl19str_format_internal12_GLOBAL__N_19IntDigits15PrintAsHexLowerImEEvT_.exit, label %30, !llvm.loop !30

_ZN4absl19str_format_internal12_GLOBAL__N_19IntDigits15PrintAsHexLowerImEEvT_.exit: ; preds = %30
  %37 = and i16 %35, 255
  %38 = icmp eq i16 %37, 48
  %39 = getelementptr inbounds i8, ptr %.09.i, i64 -1
  %spec.select.i = select i1 %38, ptr %39, ptr %31
  store ptr %spec.select.i, ptr %5, align 8, !tbaa !9
  %40 = ptrtoint ptr %29 to i64
  %41 = ptrtoint ptr %spec.select.i to i64
  %42 = sub i64 %40, %41
  %43 = getelementptr inbounds nuw i8, ptr %5, i64 8
  store i64 %42, ptr %43, align 8, !tbaa !15
  call fastcc void @_ZN4absl19str_format_internal12_GLOBAL__N_123ConvertIntImplInnerSlowERKNS1_9IntDigitsENS0_24FormatConversionSpecImplEPNS0_14FormatSinkImplE(ptr nonnull %spec.select.i, i64 %42, i64 %1, i32 %2, ptr noundef %3)
  call void @llvm.lifetime.end.p0(i64 64, ptr nonnull %5) #12
  br label %_ZN4absl19str_format_internal14FormatSinkImpl6AppendESt17basic_string_viewIcSt11char_traitsIcEE.exit

_ZN4absl19str_format_internal14FormatSinkImpl6AppendESt17basic_string_viewIcSt11char_traitsIcEE.exit: ; preds = %25, %16, %_ZN4absl19str_format_internal12_GLOBAL__N_19IntDigits15PrintAsHexLowerImEEvT_.exit
  ret i8 1
}